target datalayout = "e-m:e-p270:32:32-p271:32:32-p272:64:64-i64:64-i128:128-f80:128-n8:16:32:64-S128"
target triple = "x86_64-pc-linux-gnu"

%struct._typeobject = type { %struct.PyVarObject, ptr, i64, i64, ptr, i64, ptr, ptr, ptr, ptr, ptr, ptr, ptr, ptr, ptr, ptr, ptr, ptr, ptr, i64, ptr, ptr, ptr, ptr, i64, ptr, ptr, ptr, ptr, ptr, ptr, ptr, ptr, ptr, i64, ptr, ptr, ptr, ptr, ptr, ptr, ptr, ptr, ptr, ptr, ptr, i32, ptr, ptr, i8, i16 }
%struct.PyVarObject = type { %struct._object, i64 }
%struct._object = type { %union.anon, ptr }
%union.anon = type { i64 }

@PyExc_TypeError = external global ptr, align 8
@.str.7 = private unnamed_addr constant [44 x i8] c"'%.200s' object does not support vectorcall\00", align 1
@_Py_tss_tstate = external thread_local global ptr, align 8

; Function Attrs: inlinehint nounwind uwtable
define internal ptr @_Py_TYPE(ptr noundef %0) #1 {
  %2 = alloca ptr, align 8
  store ptr %0, ptr %2, align 8, !tbaa !9
  %3 = load ptr, ptr %2, align 8, !tbaa !9
  %4 = getelementptr inbounds nuw %struct._object, ptr %3, i32 0, i32 1
  %5 = load ptr, ptr %4, align 8, !tbaa !35
  ret ptr %5
}

; Function Attrs: inlinehint nounwind uwtable
define internal ptr @_PyThreadState_GET() #1 {
  %1 = call align 8 ptr @llvm.threadlocal.address.p0(ptr align 8 @_Py_tss_tstate)
  %2 = load ptr, ptr %1, align 8, !tbaa !4
  ret ptr %2
}

; Function Attrs: nounwind uwtable
define dso_local ptr @PyVectorcall_Call(ptr noundef %0, ptr noundef %1, ptr noundef %2) #0 {
  %4 = alloca ptr, align 8
  %5 = alloca ptr, align 8
  %6 = alloca ptr, align 8
  %7 = alloca ptr, align 8
  %8 = alloca ptr, align 8
  %9 = alloca i64, align 8
  %10 = alloca i32, align 4
  %11 = alloca ptr, align 8
  store ptr %0, ptr %5, align 8, !tbaa !9
  store ptr %1, ptr %6, align 8, !tbaa !9
  store ptr %2, ptr %7, align 8, !tbaa !9
  call void @llvm.lifetime.start.p0(i64 8, ptr %8) #9
  %12 = call ptr @_PyThreadState_GET()
  store ptr %12, ptr %8, align 8, !tbaa !4
  call void @llvm.lifetime.start.p0(i64 8, ptr %9) #9
  %13 = load ptr, ptr %5, align 8, !tbaa !9
  %14 = call ptr @_Py_TYPE(ptr noundef %13)
  %15 = getelementptr inbounds nuw %struct._typeobject, ptr %14, i32 0, i32 5
  %16 = load i64, ptr %15, align 8, !tbaa !51
  store i64 %16, ptr %9, align 8, !tbaa !37
  %17 = load i64, ptr %9, align 8, !tbaa !37
  %18 = icmp sle i64 %17, 0
  br i1 %18, label %19, label %27

19:                                               ; preds = %3
  %20 = load ptr, ptr %8, align 8, !tbaa !4
  %21 = load ptr, ptr @PyExc_TypeError, align 8, !tbaa !9
  %22 = load ptr, ptr %5, align 8, !tbaa !9
  %23 = call ptr @_Py_TYPE(ptr noundef %22)
  %24 = getelementptr inbounds nuw %struct._typeobject, ptr %23, i32 0, i32 1
  %25 = load ptr, ptr %24, align 8, !tbaa !26
  %26 = call ptr (ptr, ptr, ptr, ...) @_PyErr_Format(ptr noundef %20, ptr noundef %21, ptr noundef @.str.7, ptr noundef %25)
  store ptr null, ptr %4, align 8
  store i32 1, ptr %10, align 4
  br label %49

27:                                               ; preds = %3
  call void @llvm.lifetime.start.p0(i64 8, ptr %11) #9
  %28 = load ptr, ptr %5, align 8, !tbaa !9
  %29 = load i64, ptr %9, align 8, !tbaa !37
  %30 = getelementptr i8, ptr %28, i64 %29
  call void @llvm.memcpy.p0.p0.i64(ptr align 8 %11, ptr align 1 %30, i64 8, i1 false)
  %31 = load ptr, ptr %11, align 8, !tbaa !38
  %32 = icmp eq ptr %31, null
  br i1 %32, label %33, label %41

33:                                               ; preds = %27
  %34 = load ptr, ptr %8, align 8, !tbaa !4
  %35 = load ptr, ptr @PyExc_TypeError, align 8, !tbaa !9
  %36 = load ptr, ptr %5, align 8, !tbaa !9
  %37 = call ptr @_Py_TYPE(ptr noundef %36)
  %38 = getelementptr inbounds nuw %struct._typeobject, ptr %37, i32 0, i32 1
  %39 = load ptr, ptr %38, align 8, !tbaa !26
  %40 = call ptr (ptr, ptr, ptr, ...) @_PyErr_Format(ptr noundef %34, ptr noundef %35, ptr noundef @.str.7, ptr noundef %39)
  store ptr null, ptr %4, align 8
  store i32 1, ptr %10, align 4
  br label %48

41:                                               ; preds = %27
  %42 = load ptr, ptr %8, align 8, !tbaa !4
  %43 = load ptr, ptr %11, align 8, !tbaa !38
  %44 = load ptr, ptr %5, align 8, !tbaa !9
  %45 = load ptr, ptr %6, align 8, !tbaa !9
  %46 = load ptr, ptr %7, align 8, !tbaa !9
  %47 = call ptr @_PyVectorcall_Call(ptr noundef %42, ptr noundef %43, ptr noundef %44, ptr noundef %45, ptr noundef %46)
  store ptr %47, ptr %4, align 8
  store i32 1, ptr %10, align 4
  br label %48

48:                                               ; preds = %41, %33
  call void @llvm.lifetime.end.p0(i64 8, ptr %11) #9
  br label %49

49:                                               ; preds = %48, %19
  call void @llvm.lifetime.end.p0(i64 8, ptr %9) #9
  call void @llvm.lifetime.end.p0(i64 8, ptr %8) #9
  %50 = load ptr, ptr %4, align 8
  ret ptr %50
}