; Function Attrs: nounwind uwtable
define dso_local ptr @PyVectorcall_Call(ptr noundef %0, ptr noundef %1, ptr noundef %2) local_unnamed_addr #0 {
  %4 = tail call align 8 ptr @llvm.threadlocal.address.p0(ptr align 8 @_Py_tss_tstate)
  %5 = load ptr, ptr %4, align 8, !tbaa !25
  %6 = getelementptr i8, ptr %0, i64 8
  %.val16 = load ptr, ptr %6, align 8, !tbaa !20
  %7 = getelementptr inbounds nuw i8, ptr %.val16, i64 56
  %8 = load i64, ptr %7, align 8, !tbaa !35
  %9 = icmp slt i64 %8, 1
  br i1 %9, label %10, label %15

10:                                               ; preds = %3
  %11 = load ptr, ptr @PyExc_TypeError, align 8, !tbaa !23
  %12 = getelementptr inbounds nuw i8, ptr %.val16, i64 24
  %13 = load ptr, ptr %12, align 8, !tbaa !26
  %14 = tail call ptr (ptr, ptr, ptr, ...) @_PyErr_Format(ptr noundef %5, ptr noundef %11, ptr noundef nonnull @.str.7, ptr noundef %13) #10
  br label %25

15:                                               ; preds = %3
  %16 = getelementptr i8, ptr %0, i64 %8
  %.0.copyload = load ptr, ptr %16, align 1
  %17 = icmp eq ptr %.0.copyload, null
  br i1 %17, label %18, label %23

18:                                               ; preds = %15
  %19 = load ptr, ptr @PyExc_TypeError, align 8, !tbaa !23
  %20 = getelementptr inbounds nuw i8, ptr %.val16, i64 24
  %21 = load ptr, ptr %20, align 8, !tbaa !26
  %22 = tail call ptr (ptr, ptr, ptr, ...) @_PyErr_Format(ptr noundef %5, ptr noundef %19, ptr noundef nonnull @.str.7, ptr noundef %21) #10
  br label %25

23:                                               ; preds = %15
  %24 = tail call fastcc ptr @_PyVectorcall_Call(ptr noundef %5, ptr noundef %.0.copyload, ptr noundef nonnull %0, ptr noundef %1, ptr noundef %2)
  br label %25

25:                                               ; preds = %18, %23, %10
  %.0 = phi ptr [ null, %10 ], [ null, %18 ], [ %24, %23 ]
  ret ptr %.0
}